; ModuleID = '9/741.c'
source_filename = "9/741.c"
target datalayout = "e-m:e-p270:32:32-p271:32:32-p272:64:64-i64:64-f80:128-n8:16:32:64-S128"
target triple = "x86_64-pc-linux-gnu"

%struct.patient = type { [10 x i8], i32 }

@.str = private unnamed_addr constant [4 x i8] c"%d\0A\00", align 1
@.str.1 = private unnamed_addr constant [7 x i8] c"%s %d\0A\00", align 1
@.str.2 = private unnamed_addr constant [4 x i8] c"%s\0A\00", align 1

; Function Attrs: noinline nounwind uwtable
define dso_local void @main() #0 {
  %1 = alloca i32, align 4
  %2 = alloca i32, align 4
  %3 = alloca i32, align 4
  %4 = alloca [100 x i32], align 16
  %5 = alloca i32, align 4
  %6 = alloca i32, align 4
  %7 = alloca [100 x %struct.patient], align 16
  %8 = bitcast [100 x i32]* %4 to i8*
  call void @llvm.memset.p0i8.i64(i8* align 16 %8, i8 0, i64 400, i1 false)
  %9 = call i32 (i8*, ...) @__isoc99_scanf(i8* getelementptr inbounds ([4 x i8], [4 x i8]* @.str, i64 0, i64 0), i32* %1)
  store i32 0, i32* %2, align 4
  br label %10

10:                                               ; preds = %33, %0
  %11 = load i32, i32* %2, align 4
  %12 = load i32, i32* %1, align 4
  %13 = icmp slt i32 %11, %12
  br i1 %13, label %14, label %36

14:                                               ; preds = %10
  %15 = load i32, i32* %2, align 4
  %16 = sext i32 %15 to i64
  %17 = getelementptr inbounds [100 x %struct.patient], [100 x %struct.patient]* %7, i64 0, i64 %16
  %18 = getelementptr inbounds %struct.patient, %struct.patient* %17, i32 0, i32 0
  %19 = getelementptr inbounds [10 x i8], [10 x i8]* %18, i64 0, i64 0
  %20 = load i32, i32* %2, align 4
  %21 = sext i32 %20 to i64
  %22 = getelementptr inbounds [100 x %struct.patient], [100 x %struct.patient]* %7, i64 0, i64 %21
  %23 = getelementptr inbounds %struct.patient, %struct.patient* %22, i32 0, i32 1
  %24 = call i32 (i8*, ...) @__isoc99_scanf(i8* getelementptr inbounds ([7 x i8], [7 x i8]* @.str.1, i64 0, i64 0), i8* %19, i32* %23)
  %25 = load i32, i32* %2, align 4
  %26 = sext i32 %25 to i64
  %27 = getelementptr inbounds [100 x %struct.patient], [100 x %struct.patient]* %7, i64 0, i64 %26
  %28 = getelementptr inbounds %struct.patient, %struct.patient* %27, i32 0, i32 1
  %29 = load i32, i32* %28, align 4
  %30 = load i32, i32* %2, align 4
  %31 = sext i32 %30 to i64
  %32 = getelementptr inbounds [100 x i32], [100 x i32]* %4, i64 0, i64 %31
  store i32 %29, i32* %32, align 4
  br label %33

33:                                               ; preds = %14
  %34 = load i32, i32* %2, align 4
  %35 = add nsw i32 %34, 1
  store i32 %35, i32* %2, align 4
  br label %10

36:                                               ; preds = %10
  store i32 0, i32* %3, align 4
  br label %37

37:                                               ; preds = %84, %36
  %38 = load i32, i32* %3, align 4
  %39 = load i32, i32* %1, align 4
  %40 = sub nsw i32 %39, 1
  %41 = icmp slt i32 %38, %40
  br i1 %41, label %42, label %87

42:                                               ; preds = %37
  store i32 0, i32* %2, align 4
  br label %43

43:                                               ; preds = %80, %42
  %44 = load i32, i32* %2, align 4
  %45 = load i32, i32* %1, align 4
  %46 = sub nsw i32 %45, 1
  %47 = load i32, i32* %3, align 4
  %48 = sub nsw i32 %46, %47
  %49 = icmp slt i32 %44, %48
  br i1 %49, label %50, label %83

50:                                               ; preds = %43
  %51 = load i32, i32* %2, align 4
  %52 = sext i32 %51 to i64
  %53 = getelementptr inbounds [100 x i32], [100 x i32]* %4, i64 0, i64 %52
  %54 = load i32, i32* %53, align 4
  %55 = load i32, i32* %2, align 4
  %56 = add nsw i32 %55, 1
  %57 = sext i32 %56 to i64
  %58 = getelementptr inbounds [100 x i32], [100 x i32]* %4, i64 0, i64 %57
  %59 = load i32, i32* %58, align 4
  %60 = icmp slt i32 %54, %59
  br i1 %60, label %61, label %79

61:                                               ; preds = %50
  %62 = load i32, i32* %2, align 4
  %63 = sext i32 %62 to i64
  %64 = getelementptr inbounds [100 x i32], [100 x i32]* %4, i64 0, i64 %63
  %65 = load i32, i32* %64, align 4
  store i32 %65, i32* %5, align 4
  %66 = load i32, i32* %2, align 4
  %67 = add nsw i32 %66, 1
  %68 = sext i32 %67 to i64
  %69 = getelementptr inbounds [100 x i32], [100 x i32]* %4, i64 0, i64 %68
  %70 = load i32, i32* %69, align 4
  %71 = load i32, i32* %2, align 4
  %72 = sext i32 %71 to i64
  %73 = getelementptr inbounds [100 x i32], [100 x i32]* %4, i64 0, i64 %72
  store i32 %70, i32* %73, align 4
  %74 = load i32, i32* %5, align 4
  %75 = load i32, i32* %2, align 4
  %76 = add nsw i32 %75, 1
  %77 = sext i32 %76 to i64
  %78 = getelementptr inbounds [100 x i32], [100 x i32]* %4, i64 0, i64 %77
  store i32 %74, i32* %78, align 4
  br label %79

79:                                               ; preds = %61, %50
  br label %80

80:                                               ; preds = %79
  %81 = load i32, i32* %2, align 4
  %82 = add nsw i32 %81, 1
  store i32 %82, i32* %2, align 4
  br label %43

83:                                               ; preds = %43
  br label %84

84:                                               ; preds = %83
  %85 = load i32, i32* %3, align 4
  %86 = add nsw i32 %85, 1
  store i32 %86, i32* %3, align 4
  br label %37

87:                                               ; preds = %37
  store i32 0, i32* %2, align 4
  br label %88

88:                                               ; preds = %101, %87
  %89 = load i32, i32* %2, align 4
  %90 = load i32, i32* %1, align 4
  %91 = icmp slt i32 %89, %90
  br i1 %91, label %92, label %104

92:                                               ; preds = %88
  %93 = load i32, i32* %2, align 4
  %94 = sext i32 %93 to i64
  %95 = getelementptr inbounds [100 x i32], [100 x i32]* %4, i64 0, i64 %94
  %96 = load i32, i32* %95, align 4
  %97 = icmp slt i32 %96, 60
  br i1 %97, label %98, label %100

98:                                               ; preds = %92
  %99 = load i32, i32* %2, align 4
  store i32 %99, i32* %6, align 4
  br label %104

100:                                              ; preds = %92
  br label %101

101:                                              ; preds = %100
  %102 = load i32, i32* %2, align 4
  %103 = add nsw i32 %102, 1
  store i32 %103, i32* %2, align 4
  br label %88

104:                                              ; preds = %98, %88
  store i32 0, i32* %3, align 4
  br label %105

105:                                              ; preds = %151, %104
  %106 = load i32, i32* %3, align 4
  %107 = load i32, i32* %6, align 4
  %108 = icmp slt i32 %106, %107
  br i1 %108, label %109, label %154

109:                                              ; preds = %105
  store i32 0, i32* %2, align 4
  br label %110

110:                                              ; preds = %147, %109
  %111 = load i32, i32* %2, align 4
  %112 = load i32, i32* %1, align 4
  %113 = icmp slt i32 %111, %112
  br i1 %113, label %114, label %150

114:                                              ; preds = %110
  %115 = load i32, i32* %2, align 4
  %116 = sext i32 %115 to i64
  %117 = getelementptr inbounds [100 x %struct.patient], [100 x %struct.patient]* %7, i64 0, i64 %116
  %118 = getelementptr inbounds %struct.patient, %struct.patient* %117, i32 0, i32 1
  %119 = load i32, i32* %118, align 4
  %120 = load i32, i32* %3, align 4
  %121 = sext i32 %120 to i64
  %122 = getelementptr inbounds [100 x i32], [100 x i32]* %4, i64 0, i64 %121
  %123 = load i32, i32* %122, align 4
  %124 = icmp eq i32 %119, %123
  br i1 %124, label %125, label %146

125:                                              ; preds = %114
  %126 = load i32, i32* %3, align 4
  %127 = icmp eq i32 %126, 0
  br i1 %127, label %139, label %128

128:                                              ; preds = %125
  %129 = load i32, i32* %3, align 4
  %130 = sext i32 %129 to i64
  %131 = getelementptr inbounds [100 x i32], [100 x i32]* %4, i64 0, i64 %130
  %132 = load i32, i32* %131, align 4
  %133 = load i32, i32* %3, align 4
  %134 = sub nsw i32 %133, 1
  %135 = sext i32 %134 to i64
  %136 = getelementptr inbounds [100 x i32], [100 x i32]* %4, i64 0, i64 %135
  %137 = load i32, i32* %136, align 4
  %138 = icmp ne i32 %132, %137
  br i1 %138, label %139, label %146

139:                                              ; preds = %128, %125
  %140 = load i32, i32* %2, align 4
  %141 = sext i32 %140 to i64
  %142 = getelementptr inbounds [100 x %struct.patient], [100 x %struct.patient]* %7, i64 0, i64 %141
  %143 = getelementptr inbounds %struct.patient, %struct.patient* %142, i32 0, i32 0
  %144 = getelementptr inbounds [10 x i8], [10 x i8]* %143, i64 0, i64 0
  %145 = call i32 (i8*, ...) @printf(i8* getelementptr inbounds ([4 x i8], [4 x i8]* @.str.2, i64 0, i64 0), i8* %144)
  br label %146

146:                                              ; preds = %139, %128, %114
  br label %147

147:                                              ; preds = %146
  %148 = load i32, i32* %2, align 4
  %149 = add nsw i32 %148, 1
  store i32 %149, i32* %2, align 4
  br label %110

150:                                              ; preds = %110
  br label %151

151:                                              ; preds = %150
  %152 = load i32, i32* %3, align 4
  %153 = add nsw i32 %152, 1
  store i32 %153, i32* %3, align 4
  br label %105

154:                                              ; preds = %105
  store i32 0, i32* %2, align 4
  br label %155

155:                                              ; preds = %174, %154
  %156 = load i32, i32* %2, align 4
  %157 = load i32, i32* %1, align 4
  %158 = icmp slt i32 %156, %157
  br i1 %158, label %159, label %177

159:                                              ; preds = %155
  %160 = load i32, i32* %2, align 4
  %161 = sext i32 %160 to i64
  %162 = getelementptr inbounds [100 x %struct.patient], [100 x %struct.patient]* %7, i64 0, i64 %161
  %163 = getelementptr inbounds %struct.patient, %struct.patient* %162, i32 0, i32 1
  %164 = load i32, i32* %163, align 4
  %165 = icmp slt i32 %164, 60
  br i1 %165, label %166, label %173

166:                                              ; preds = %159
  %167 = load i32, i32* %2, align 4
  %168 = sext i32 %167 to i64
  %169 = getelementptr inbounds [100 x %struct.patient], [100 x %struct.patient]* %7, i64 0, i64 %168
  %170 = getelementptr inbounds %struct.patient, %struct.patient* %169, i32 0, i32 0
  %171 = getelementptr inbounds [10 x i8], [10 x i8]* %170, i64 0, i64 0
  %172 = call i32 (i8*, ...) @printf(i8* getelementptr inbounds ([4 x i8], [4 x i8]* @.str.2, i64 0, i64 0), i8* %171)
  br label %173

173:                                              ; preds = %166, %159
  br label %174

174:                                              ; preds = %173
  %175 = load i32, i32* %2, align 4
  %176 = add nsw i32 %175, 1
  store i32 %176, i32* %2, align 4
  br label %155

177:                                              ; preds = %155
  ret void
}

; Function Attrs: argmemonly nounwind willreturn
declare void @llvm.memset.p0i8.i64(i8* nocapture writeonly, i8, i64, i1 immarg) #1

declare dso_local i32 @__isoc99_scanf(i8*, ...) #2

declare dso_local i32 @printf(i8*, ...) #2


!llvm.module.flags = !{!0}
!llvm.ident = !{!1}

!0 = !{i32 1, !"wchar_size", i32 4}
!1 = !{!"clang version 10.0.0-4ubuntu1 "}
